target datalayout = "e-m:e-p270:32:32-p271:32:32-p272:64:64-i64:64-i128:128-f80:128-n8:16:32:64-S128"
target triple = "x86_64-unknown-linux-gnu"

%"class.arrow::Status" = type { ptr }
%"class.arrow::Result.7" = type { %"class.arrow::Status", %"class.arrow::internal::AlignedStorage.10" }
%"class.arrow::internal::AlignedStorage.10" = type { %"union.std::aligned_storage<8, 8>::type" }
%"union.std::aligned_storage<8, 8>::type" = type { [8 x i8] }
%"class.arrow::util::CodecOptions" = type <{ ptr, i32, [4 x i8] }>

@_ZTVN5arrow4util12CodecOptionsE = linkonce_odr unnamed_addr constant { [4 x ptr] } { [4 x ptr] [ptr null, ptr @_ZTIN5arrow4util12CodecOptionsE, ptr @_ZN5arrow4util12CodecOptionsD2Ev, ptr @_ZN5arrow4util12CodecOptionsD0Ev] }, comdat, align 8

; Function Attrs: mustprogress nounwind uwtable
define linkonce_odr void @_ZN5arrow4util12CodecOptionsD2Ev(ptr noundef nonnull align 8 dereferenceable(12) %this) unnamed_addr #0 comdat align 2 {
entry:
  %this.addr = alloca ptr, align 8
  store ptr %this, ptr %this.addr, align 8
  ret void
}

; Function Attrs: mustprogress nounwind uwtable
define linkonce_odr void @_ZN5arrow4util12CodecOptionsC2Ei(ptr noundef nonnull align 8 dereferenceable(12) %this, i32 noundef %compression_level) unnamed_addr #0 comdat align 2 {
entry:
  %this.addr = alloca ptr, align 8
  %compression_level.addr = alloca i32, align 4
  store ptr %this, ptr %this.addr, align 8
  store i32 %compression_level, ptr %compression_level.addr, align 4
  %this1 = load ptr, ptr %this.addr, align 8
  store ptr getelementptr inbounds ({ [4 x ptr] }, ptr @_ZTVN5arrow4util12CodecOptionsE, i32 0, i32 0, i32 2), ptr %this1, align 8
  %compression_level2 = getelementptr inbounds %"class.arrow::util::CodecOptions", ptr %this1, i32 0, i32 1
  %0 = load i32, ptr %compression_level.addr, align 4
  store i32 %0, ptr %compression_level2, align 8
  ret void
}

; Function Attrs: mustprogress uwtable
define void @_ZN5arrow4util5Codec6CreateENS_11Compression4typeEi(ptr noalias sret(%"class.arrow::Result.7") align 8 %agg.result, i32 noundef %codec_type, i32 noundef %compression_level) #1 align 2 personality ptr @__gxx_personality_v0 {
entry:
  %result.ptr = alloca ptr, align 8
  %codec_type.addr = alloca i32, align 4
  %compression_level.addr = alloca i32, align 4
  %ref.tmp = alloca %"class.arrow::util::CodecOptions", align 8
  %exn.slot = alloca ptr, align 8
  %ehselector.slot = alloca i32, align 4
  store ptr %agg.result, ptr %result.ptr, align 8
  store i32 %codec_type, ptr %codec_type.addr, align 4
  store i32 %compression_level, ptr %compression_level.addr, align 4
  %0 = load i32, ptr %codec_type.addr, align 4
  %1 = load i32, ptr %compression_level.addr, align 4
  call void @_ZN5arrow4util12CodecOptionsC2Ei(ptr noundef nonnull align 8 dereferenceable(12) %ref.tmp, i32 noundef %1)
  invoke void @_ZN5arrow4util5Codec6CreateENS_11Compression4typeERKNS0_12CodecOptionsE(ptr sret(%"class.arrow::Result.7") align 8 %agg.result, i32 noundef %0, ptr noundef nonnull align 8 dereferenceable(12) %ref.tmp)
          to label %invoke.cont unwind label %lpad

invoke.cont:                                      ; preds = %entry
  call void @_ZN5arrow4util12CodecOptionsD2Ev(ptr noundef nonnull align 8 dereferenceable(12) %ref.tmp) #2
  ret void

lpad:                                             ; preds = %entry
  %2 = landingpad { ptr, i32 }
          cleanup
  %3 = extractvalue { ptr, i32 } %2, 0
  store ptr %3, ptr %exn.slot, align 8
  %4 = extractvalue { ptr, i32 } %2, 1
  store i32 %4, ptr %ehselector.slot, align 4
  call void @_ZN5arrow4util12CodecOptionsD2Ev(ptr noundef nonnull align 8 dereferenceable(12) %ref.tmp) #2
  br label %eh.resume

eh.resume:                                        ; preds = %lpad
  %exn = load ptr, ptr %exn.slot, align 8
  %sel = load i32, ptr %ehselector.slot, align 4
  %lpad.val = insertvalue { ptr, i32 } poison, ptr %exn, 0
  %lpad.val1 = insertvalue { ptr, i32 } %lpad.val, i32 %sel, 1
  resume { ptr, i32 } %lpad.val1
}