; Function Attrs: mustprogress uwtable
define void @_ZN5arrow4util5Codec6CreateENS_11Compression4typeEi(ptr noalias sret(%"class.arrow::Result.7") align 8 %agg.result, i32 noundef %codec_type, i32 noundef %compression_level) local_unnamed_addr #2 align 2 personality ptr @__gxx_personality_v0 {
entry:
  %ref.tmp = alloca %"class.arrow::util::CodecOptions", align 8
  store ptr getelementptr inbounds ({ [4 x ptr] }, ptr @_ZTVN5arrow4util12CodecOptionsE, i64 0, i32 0, i64 2), ptr %ref.tmp, align 8
  %compression_level2.i = getelementptr inbounds i8, ptr %ref.tmp, i64 8
  store i32 %compression_level, ptr %compression_level2.i, align 8
  call void @_ZN5arrow4util5Codec6CreateENS_11Compression4typeERKNS0_12CodecOptionsE(ptr sret(%"class.arrow::Result.7") align 8 %agg.result, i32 noundef %codec_type, ptr noundef nonnull align 8 dereferenceable(12) %ref.tmp)
  ret void
}